; Function Attrs: mustprogress nounwind uwtable
define hidden noundef nonnull align 8 dereferenceable(32) ptr @_ZNK19OpenColorIO_v2_4dev18FormatMetadataImpl23getAttributeValueStringB5cxx11EPKc(ptr nocapture noundef nonnull readonly align 8 dereferenceable(120) %this, ptr noundef %name) local_unnamed_addr #4 align 2 personality ptr @__gxx_personality_v0 {
entry:
  %ref.tmp = alloca %"class.std::allocator", align 1
  %tobool.not = icmp eq ptr %name, null
  br i1 %tobool.not, label %if.end11, label %land.lhs.true

land.lhs.true:                                    ; preds = %entry
  %0 = load i8, ptr %name, align 1
  %tobool2.not = icmp eq i8 %0, 0
  br i1 %tobool2.not, label %if.end11, label %if.then

if.then:                                          ; preds = %land.lhs.true
  %m_attributes = getelementptr inbounds i8, ptr %this, i64 72
  %1 = load ptr, ptr %m_attributes, align 8
  %_M_finish.i = getelementptr inbounds i8, ptr %this, i64 80
  %2 = load ptr, ptr %_M_finish.i, align 8
  %cmp.i.not9 = icmp eq ptr %1, %2
  br i1 %cmp.i.not9, label %if.end11, label %for.body

for.body:                                         ; preds = %if.then, %for.inc
  %__begin2.sroa.0.010 = phi ptr [ %incdec.ptr.i, %for.inc ], [ %1, %if.then ]
  %call7 = tail call noundef ptr @_ZNKSt7__cxx1112basic_stringIcSt11char_traitsIcESaIcEE5c_strEv(ptr noundef nonnull align 8 dereferenceable(32) %__begin2.sroa.0.010) #17
  %call8 = invoke noundef i32 @_ZN19OpenColorIO_v2_4dev8Platform10StrcasecmpEPKcS2_(ptr noundef nonnull %name, ptr noundef %call7)
          to label %invoke.cont unwind label %terminate.lpad.loopexit

invoke.cont:                                      ; preds = %for.body
  %cmp = icmp eq i32 %call8, 0
  br i1 %cmp, label %if.then9, label %for.inc

if.then9:                                         ; preds = %invoke.cont
  %second = getelementptr inbounds i8, ptr %__begin2.sroa.0.010, i64 32
  br label %return

for.inc:                                          ; preds = %invoke.cont
  %incdec.ptr.i = getelementptr inbounds i8, ptr %__begin2.sroa.0.010, i64 64
  %cmp.i.not = icmp eq ptr %incdec.ptr.i, %2
  br i1 %cmp.i.not, label %if.end11, label %for.body

if.end11:                                         ; preds = %for.inc, %if.then, %land.lhs.true, %entry
  %3 = load atomic i8, ptr @_ZGVZNK19OpenColorIO_v2_4dev18FormatMetadataImpl23getAttributeValueStringB5cxx11EPKcE11emptyStringB5cxx11 acquire, align 8
  %guard.uninitialized = icmp eq i8 %3, 0
  br i1 %guard.uninitialized, label %init.check, label %return, !prof !20

init.check:                                       ; preds = %if.end11
  %4 = tail call i32 @__cxa_guard_acquire(ptr nonnull @_ZGVZNK19OpenColorIO_v2_4dev18FormatMetadataImpl23getAttributeValueStringB5cxx11EPKcE11emptyStringB5cxx11) #17
  %tobool12.not = icmp eq i32 %4, 0
  br i1 %tobool12.not, label %return, label %init

init:                                             ; preds = %init.check
  call void @_ZNSaIcEC1Ev(ptr noundef nonnull align 1 dereferenceable(1) %ref.tmp) #17
  invoke void @_ZNSt7__cxx1112basic_stringIcSt11char_traitsIcESaIcEEC1EPKcRKS3_(ptr noundef nonnull align 8 dereferenceable(32) @_ZZNK19OpenColorIO_v2_4dev18FormatMetadataImpl23getAttributeValueStringB5cxx11EPKcE11emptyStringB5cxx11, ptr noundef nonnull @.str.12, ptr noundef nonnull align 1 dereferenceable(1) %ref.tmp)
          to label %invoke.cont13 unwind label %terminate.lpad.loopexit.split-lp

invoke.cont13:                                    ; preds = %init
  call void @_ZNSaIcED1Ev(ptr noundef nonnull align 1 dereferenceable(1) %ref.tmp) #17
  %5 = call i32 @__cxa_atexit(ptr nonnull @_ZNSt7__cxx1112basic_stringIcSt11char_traitsIcESaIcEED1Ev, ptr nonnull @_ZZNK19OpenColorIO_v2_4dev18FormatMetadataImpl23getAttributeValueStringB5cxx11EPKcE11emptyStringB5cxx11, ptr nonnull @__dso_handle) #17
  call void @__cxa_guard_release(ptr nonnull @_ZGVZNK19OpenColorIO_v2_4dev18FormatMetadataImpl23getAttributeValueStringB5cxx11EPKcE11emptyStringB5cxx11) #17
  br label %return

return:                                           ; preds = %if.end11, %init.check, %invoke.cont13, %if.then9
  %retval.0 = phi ptr [ %second, %if.then9 ], [ @_ZZNK19OpenColorIO_v2_4dev18FormatMetadataImpl23getAttributeValueStringB5cxx11EPKcE11emptyStringB5cxx11, %invoke.cont13 ], [ @_ZZNK19OpenColorIO_v2_4dev18FormatMetadataImpl23getAttributeValueStringB5cxx11EPKcE11emptyStringB5cxx11, %init.check ], [ @_ZZNK19OpenColorIO_v2_4dev18FormatMetadataImpl23getAttributeValueStringB5cxx11EPKcE11emptyStringB5cxx11, %if.end11 ]
  ret ptr %retval.0

terminate.lpad.loopexit:                          ; preds = %for.body
  %lpad.loopexit = landingpad { ptr, i32 }
          catch ptr null
  br label %terminate.lpad

terminate.lpad.loopexit.split-lp:                 ; preds = %init
  %lpad.loopexit.split-lp = landingpad { ptr, i32 }
          catch ptr null
  br label %terminate.lpad

terminate.lpad:                                   ; preds = %terminate.lpad.loopexit.split-lp, %terminate.lpad.loopexit
  %lpad.phi = phi { ptr, i32 } [ %lpad.loopexit, %terminate.lpad.loopexit ], [ %lpad.loopexit.split-lp, %terminate.lpad.loopexit.split-lp ]
  %6 = extractvalue { ptr, i32 } %lpad.phi, 0
  call void @__clang_call_terminate(ptr %6) #21
  unreachable
}